target datalayout = "e-m:e-p270:32:32-p271:32:32-p272:64:64-i64:64-i128:128-f80:128-n8:16:32:64-S128"
target triple = "x86_64-pc-linux-gnu"

%struct.sp_int = type { i16, i16, [129 x i64] }

; Function Attrs: nounwind uwtable
define i32 @sp_cmp_d(ptr noundef %0, i64 noundef %1) #0 {
  %3 = alloca ptr, align 8
  %4 = alloca i64, align 8
  %5 = alloca i32, align 4
  store ptr %0, ptr %3, align 8, !tbaa !3
  store i64 %1, ptr %4, align 8, !tbaa !16
  call void @llvm.lifetime.start.p0(i64 4, ptr %5) #8
  store i32 0, ptr %5, align 4, !tbaa !8
  %6 = load ptr, ptr %3, align 8, !tbaa !3
  %7 = icmp eq ptr %6, null
  br i1 %7, label %8, label %9

8:                                                ; preds = %2
  store i32 -1, ptr %5, align 4, !tbaa !8
  br label %47

9:                                                ; preds = %2
  %10 = load ptr, ptr %3, align 8, !tbaa !3
  %11 = getelementptr inbounds nuw %struct.sp_int, ptr %10, i32 0, i32 0
  %12 = load i16, ptr %11, align 8, !tbaa !15
  %13 = zext i16 %12 to i32
  %14 = icmp sgt i32 %13, 1
  br i1 %14, label %15, label %16

15:                                               ; preds = %9
  store i32 1, ptr %5, align 4, !tbaa !8
  br label %46

16:                                               ; preds = %9
  %17 = load ptr, ptr %3, align 8, !tbaa !3
  %18 = getelementptr inbounds nuw %struct.sp_int, ptr %17, i32 0, i32 0
  %19 = load i16, ptr %18, align 8, !tbaa !15
  %20 = zext i16 %19 to i32
  %21 = icmp eq i32 %20, 0
  br i1 %21, label %22, label %27

22:                                               ; preds = %16
  %23 = load i64, ptr %4, align 8, !tbaa !16
  %24 = icmp ne i64 %23, 0
  br i1 %24, label %25, label %26

25:                                               ; preds = %22
  store i32 -1, ptr %5, align 4, !tbaa !8
  br label %26

26:                                               ; preds = %25, %22
  br label %45

27:                                               ; preds = %16
  %28 = load ptr, ptr %3, align 8, !tbaa !3
  %29 = getelementptr inbounds nuw %struct.sp_int, ptr %28, i32 0, i32 2
  %30 = getelementptr inbounds [129 x i64], ptr %29, i64 0, i64 0
  %31 = load i64, ptr %30, align 8, !tbaa !16
  %32 = load i64, ptr %4, align 8, !tbaa !16
  %33 = icmp ugt i64 %31, %32
  br i1 %33, label %34, label %35

34:                                               ; preds = %27
  store i32 1, ptr %5, align 4, !tbaa !8
  br label %44

35:                                               ; preds = %27
  %36 = load ptr, ptr %3, align 8, !tbaa !3
  %37 = getelementptr inbounds nuw %struct.sp_int, ptr %36, i32 0, i32 2
  %38 = getelementptr inbounds [129 x i64], ptr %37, i64 0, i64 0
  %39 = load i64, ptr %38, align 8, !tbaa !16
  %40 = load i64, ptr %4, align 8, !tbaa !16
  %41 = icmp ult i64 %39, %40
  br i1 %41, label %42, label %43

42:                                               ; preds = %35
  store i32 -1, ptr %5, align 4, !tbaa !8
  br label %43

43:                                               ; preds = %42, %35
  br label %44

44:                                               ; preds = %43, %34
  br label %45

45:                                               ; preds = %44, %26
  br label %46

46:                                               ; preds = %45, %15
  br label %47

47:                                               ; preds = %46, %8
  %48 = load i32, ptr %5, align 4, !tbaa !8
  call void @llvm.lifetime.end.p0(i64 4, ptr %5) #8
  ret i32 %48
}

; Function Attrs: inlinehint nounwind uwtable
define internal i32 @sp_div_primes(ptr noundef %0, ptr noundef %1, ptr noundef %2) #2 {
  %4 = alloca ptr, align 8
  %5 = alloca ptr, align 8
  %6 = alloca ptr, align 8
  %7 = alloca i32, align 4
  %8 = alloca i32, align 4
  %9 = alloca i64, align 8
  %10 = alloca i32, align 4
  store ptr %0, ptr %4, align 8, !tbaa !3
  store ptr %1, ptr %5, align 8, !tbaa !139
  store ptr %2, ptr %6, align 8, !tbaa !139
  call void @llvm.lifetime.start.p0(i64 4, ptr %7) #8
  call void @llvm.lifetime.start.p0(i64 4, ptr %8) #8
  call void @llvm.lifetime.start.p0(i64 8, ptr %9) #8
  call void @llvm.lifetime.start.p0(i64 4, ptr %10) #8
  store i32 0, ptr %10, align 4, !tbaa !8
  store i32 0, ptr %7, align 4, !tbaa !8
  store i32 0, ptr %8, align 4, !tbaa !8
  br label %11

11:                                               ; preds = %60, %3
  %12 = load ptr, ptr %5, align 8, !tbaa !139
  %13 = load i32, ptr %12, align 4, !tbaa !8
  %14 = icmp ne i32 %13, 0
  br i1 %14, label %18, label %15

15:                                               ; preds = %11
  %16 = load i32, ptr %8, align 4, !tbaa !8
  %17 = icmp slt i32 %16, 38
  br label %18

18:                                               ; preds = %15, %11
  %19 = phi i1 [ false, %11 ], [ %17, %15 ]
  br i1 %19, label %20, label %63

20:                                               ; preds = %18
  %21 = load ptr, ptr %4, align 8, !tbaa !3
  %22 = load i32, ptr %8, align 4, !tbaa !8
  %23 = sext i32 %22 to i64
  %24 = getelementptr inbounds [38 x i64], ptr @sp_comp, i64 0, i64 %23
  %25 = load i64, ptr %24, align 8, !tbaa !16
  %26 = call i32 @sp_mod_d(ptr noundef %21, i64 noundef %25, ptr noundef %9)
  store i32 %26, ptr %10, align 4, !tbaa !8
  %27 = load i32, ptr %10, align 4, !tbaa !8
  %28 = icmp ne i32 %27, 0
  br i1 %28, label %32, label %29

29:                                               ; preds = %20
  %30 = load i64, ptr %9, align 8, !tbaa !16
  %31 = icmp eq i64 %30, 0
  br i1 %31, label %32, label %35

32:                                               ; preds = %29, %20
  %33 = load ptr, ptr %6, align 8, !tbaa !139
  store i32 0, ptr %33, align 4, !tbaa !8
  %34 = load ptr, ptr %5, align 8, !tbaa !139
  store i32 1, ptr %34, align 4, !tbaa !8
  br label %63

35:                                               ; preds = %29
  br label %36

36:                                               ; preds = %56, %35
  %37 = load i32, ptr %7, align 4, !tbaa !8
  %38 = load i32, ptr %8, align 4, !tbaa !8
  %39 = sext i32 %38 to i64
  %40 = getelementptr inbounds [38 x i32], ptr @sp_comp_idx, i64 0, i64 %39
  %41 = load i32, ptr %40, align 4, !tbaa !8
  %42 = icmp slt i32 %37, %41
  br i1 %42, label %43, label %59

43:                                               ; preds = %36
  %44 = load i64, ptr %9, align 8, !tbaa !16
  %45 = load i32, ptr %7, align 4, !tbaa !8
  %46 = sext i32 %45 to i64
  %47 = getelementptr inbounds [256 x i16], ptr @sp_primes, i64 0, i64 %46
  %48 = load i16, ptr %47, align 2, !tbaa !32
  %49 = zext i16 %48 to i64
  %50 = urem i64 %44, %49
  %51 = icmp eq i64 %50, 0
  br i1 %51, label %52, label %55

52:                                               ; preds = %43
  %53 = load ptr, ptr %6, align 8, !tbaa !139
  store i32 0, ptr %53, align 4, !tbaa !8
  %54 = load ptr, ptr %5, align 8, !tbaa !139
  store i32 1, ptr %54, align 4, !tbaa !8
  br label %59

55:                                               ; preds = %43
  br label %56

56:                                               ; preds = %55
  %57 = load i32, ptr %7, align 4, !tbaa !8
  %58 = add nsw i32 %57, 1
  store i32 %58, ptr %7, align 4, !tbaa !8
  br label %36, !llvm.loop !143

59:                                               ; preds = %52, %36
  br label %60

60:                                               ; preds = %59
  %61 = load i32, ptr %8, align 4, !tbaa !8
  %62 = add nsw i32 %61, 1
  store i32 %62, ptr %8, align 4, !tbaa !8
  br label %11, !llvm.loop !144

63:                                               ; preds = %32, %18
  %64 = load i32, ptr %10, align 4, !tbaa !8
  call void @llvm.lifetime.end.p0(i64 4, ptr %10) #8
  call void @llvm.lifetime.end.p0(i64 8, ptr %9) #8
  call void @llvm.lifetime.end.p0(i64 4, ptr %8) #8
  call void @llvm.lifetime.end.p0(i64 4, ptr %7) #8
  ret i32 %64
}

; Function Attrs: inlinehint nounwind uwtable
define internal i32 @sp_cmp_primes(ptr noundef %0, ptr noundef %1) #2 {
  %3 = alloca ptr, align 8
  %4 = alloca ptr, align 8
  %5 = alloca i32, align 4
  %6 = alloca i32, align 4
  store ptr %0, ptr %3, align 8, !tbaa !3
  store ptr %1, ptr %4, align 8, !tbaa !139
  call void @llvm.lifetime.start.p0(i64 4, ptr %5) #8
  call void @llvm.lifetime.start.p0(i64 4, ptr %6) #8
  store i32 0, ptr %6, align 4, !tbaa !8
  %7 = load ptr, ptr %4, align 8, !tbaa !139
  store i32 0, ptr %7, align 4, !tbaa !8
  store i32 0, ptr %5, align 4, !tbaa !8
  br label %8

8:                                                ; preds = %23, %2
  %9 = load i32, ptr %5, align 4, !tbaa !8
  %10 = icmp slt i32 %9, 256
  br i1 %10, label %11, label %26

11:                                               ; preds = %8
  %12 = load ptr, ptr %3, align 8, !tbaa !3
  %13 = load i32, ptr %5, align 4, !tbaa !8
  %14 = sext i32 %13 to i64
  %15 = getelementptr inbounds [256 x i16], ptr @sp_primes, i64 0, i64 %14
  %16 = load i16, ptr %15, align 2, !tbaa !32
  %17 = zext i16 %16 to i64
  %18 = call i32 @sp_cmp_d(ptr noundef %12, i64 noundef %17)
  %19 = icmp eq i32 %18, 0
  br i1 %19, label %20, label %22

20:                                               ; preds = %11
  %21 = load ptr, ptr %4, align 8, !tbaa !139
  store i32 1, ptr %21, align 4, !tbaa !8
  store i32 1, ptr %6, align 4, !tbaa !8
  br label %26

22:                                               ; preds = %11
  br label %23

23:                                               ; preds = %22
  %24 = load i32, ptr %5, align 4, !tbaa !8
  %25 = add nsw i32 %24, 1
  store i32 %25, ptr %5, align 4, !tbaa !8
  br label %8, !llvm.loop !142

26:                                               ; preds = %20, %8
  %27 = load i32, ptr %6, align 4, !tbaa !8
  call void @llvm.lifetime.end.p0(i64 4, ptr %6) #8
  call void @llvm.lifetime.end.p0(i64 4, ptr %5) #8
  ret i32 %27
}

; Function Attrs: nounwind uwtable
define i32 @sp_prime_is_prime_ex(ptr noundef %0, i32 noundef %1, ptr noundef %2, ptr noundef %3) #0 {
  %5 = alloca ptr, align 8
  %6 = alloca i32, align 4
  %7 = alloca ptr, align 8
  %8 = alloca ptr, align 8
  %9 = alloca i32, align 4
  %10 = alloca i32, align 4
  %11 = alloca i32, align 4
  store ptr %0, ptr %5, align 8, !tbaa !3
  store i32 %1, ptr %6, align 4, !tbaa !8
  store ptr %2, ptr %7, align 8, !tbaa !139
  store ptr %3, ptr %8, align 8, !tbaa !147
  call void @llvm.lifetime.start.p0(i64 4, ptr %9) #8
  store i32 0, ptr %9, align 4, !tbaa !8
  call void @llvm.lifetime.start.p0(i64 4, ptr %10) #8
  store i32 1, ptr %10, align 4, !tbaa !8
  call void @llvm.lifetime.start.p0(i64 4, ptr %11) #8
  store i32 0, ptr %11, align 4, !tbaa !8
  %12 = load ptr, ptr %5, align 8, !tbaa !3
  %13 = icmp eq ptr %12, null
  br i1 %13, label %20, label %14

14:                                               ; preds = %4
  %15 = load ptr, ptr %7, align 8, !tbaa !139
  %16 = icmp eq ptr %15, null
  br i1 %16, label %20, label %17

17:                                               ; preds = %14
  %18 = load ptr, ptr %8, align 8, !tbaa !147
  %19 = icmp eq ptr %18, null
  br i1 %19, label %20, label %21

20:                                               ; preds = %17, %14, %4
  store i32 -98, ptr %9, align 4, !tbaa !8
  br label %21

21:                                               ; preds = %20, %17
  %22 = load i32, ptr %9, align 4, !tbaa !8
  %23 = icmp eq i32 %22, 0
  br i1 %23, label %24, label %32

24:                                               ; preds = %21
  %25 = load ptr, ptr %5, align 8, !tbaa !3
  %26 = getelementptr inbounds nuw %struct.sp_int, ptr %25, i32 0, i32 0
  %27 = load i16, ptr %26, align 8, !tbaa !15
  %28 = zext i16 %27 to i32
  %29 = mul nsw i32 %28, 2
  %30 = icmp sge i32 %29, 129
  br i1 %30, label %31, label %32

31:                                               ; preds = %24
  store i32 -98, ptr %9, align 4, !tbaa !8
  br label %32

32:                                               ; preds = %31, %24, %21
  %33 = load i32, ptr %9, align 4, !tbaa !8
  %34 = icmp eq i32 %33, 0
  br i1 %34, label %35, label %42

35:                                               ; preds = %32
  %36 = load i32, ptr %6, align 4, !tbaa !8
  %37 = icmp sle i32 %36, 0
  br i1 %37, label %41, label %38

38:                                               ; preds = %35
  %39 = load i32, ptr %6, align 4, !tbaa !8
  %40 = icmp sgt i32 %39, 256
  br i1 %40, label %41, label %42

41:                                               ; preds = %38, %35
  store i32 -98, ptr %9, align 4, !tbaa !8
  br label %42

42:                                               ; preds = %41, %38, %32
  %43 = load i32, ptr %9, align 4, !tbaa !8
  %44 = icmp eq i32 %43, 0
  br i1 %44, label %45, label %58

45:                                               ; preds = %42
  %46 = load ptr, ptr %5, align 8, !tbaa !3
  %47 = getelementptr inbounds nuw %struct.sp_int, ptr %46, i32 0, i32 0
  %48 = load i16, ptr %47, align 8, !tbaa !15
  %49 = zext i16 %48 to i32
  %50 = icmp eq i32 %49, 1
  br i1 %50, label %51, label %58

51:                                               ; preds = %45
  %52 = load ptr, ptr %5, align 8, !tbaa !3
  %53 = getelementptr inbounds nuw %struct.sp_int, ptr %52, i32 0, i32 2
  %54 = getelementptr inbounds [129 x i64], ptr %53, i64 0, i64 0
  %55 = load i64, ptr %54, align 8, !tbaa !16
  %56 = icmp eq i64 %55, 1
  br i1 %56, label %57, label %58

57:                                               ; preds = %51
  store i32 0, ptr %10, align 4, !tbaa !8
  store i32 1, ptr %11, align 4, !tbaa !8
  br label %58

58:                                               ; preds = %57, %51, %45, %42
  br label %59

59:                                               ; preds = %58
  br label %60

60:                                               ; preds = %59
  br label %61

61:                                               ; preds = %60
  %62 = load i32, ptr %9, align 4, !tbaa !8
  %63 = icmp eq i32 %62, 0
  br i1 %63, label %64, label %84

64:                                               ; preds = %61
  %65 = load i32, ptr %11, align 4, !tbaa !8
  %66 = icmp ne i32 %65, 0
  br i1 %66, label %84, label %67

67:                                               ; preds = %64
  %68 = load ptr, ptr %5, align 8, !tbaa !3
  %69 = getelementptr inbounds nuw %struct.sp_int, ptr %68, i32 0, i32 0
  %70 = load i16, ptr %69, align 8, !tbaa !15
  %71 = zext i16 %70 to i32
  %72 = icmp eq i32 %71, 1
  br i1 %72, label %73, label %84

73:                                               ; preds = %67
  %74 = load ptr, ptr %5, align 8, !tbaa !3
  %75 = getelementptr inbounds nuw %struct.sp_int, ptr %74, i32 0, i32 2
  %76 = getelementptr inbounds [129 x i64], ptr %75, i64 0, i64 0
  %77 = load i64, ptr %76, align 8, !tbaa !16
  %78 = load i16, ptr getelementptr inbounds ([256 x i16], ptr @sp_primes, i64 0, i64 255), align 2, !tbaa !32
  %79 = zext i16 %78 to i64
  %80 = icmp ule i64 %77, %79
  br i1 %80, label %81, label %84

81:                                               ; preds = %73
  %82 = load ptr, ptr %5, align 8, !tbaa !3
  %83 = call i32 @sp_cmp_primes(ptr noundef %82, ptr noundef %10)
  store i32 %83, ptr %11, align 4, !tbaa !8
  br label %84

84:                                               ; preds = %81, %73, %67, %64, %61
  %85 = load i32, ptr %9, align 4, !tbaa !8
  %86 = icmp eq i32 %85, 0
  br i1 %86, label %87, label %93

87:                                               ; preds = %84
  %88 = load i32, ptr %11, align 4, !tbaa !8
  %89 = icmp ne i32 %88, 0
  br i1 %89, label %93, label %90

90:                                               ; preds = %87
  %91 = load ptr, ptr %5, align 8, !tbaa !3
  %92 = call i32 @sp_div_primes(ptr noundef %91, ptr noundef %11, ptr noundef %10)
  store i32 %92, ptr %9, align 4, !tbaa !8
  br label %93

93:                                               ; preds = %90, %87, %84
  %94 = load i32, ptr %9, align 4, !tbaa !8
  %95 = icmp eq i32 %94, 0
  br i1 %95, label %96, label %104

96:                                               ; preds = %93
  %97 = load i32, ptr %11, align 4, !tbaa !8
  %98 = icmp ne i32 %97, 0
  br i1 %98, label %104, label %99

99:                                               ; preds = %96
  %100 = load ptr, ptr %5, align 8, !tbaa !3
  %101 = load i32, ptr %6, align 4, !tbaa !8
  %102 = load ptr, ptr %8, align 8, !tbaa !147
  %103 = call i32 @_sp_prime_random_trials(ptr noundef %100, i32 noundef %101, ptr noundef %10, ptr noundef %102)
  store i32 %103, ptr %9, align 4, !tbaa !8
  br label %104

104:                                              ; preds = %99, %96, %93
  %105 = load ptr, ptr %7, align 8, !tbaa !139
  %106 = icmp ne ptr %105, null
  br i1 %106, label %107, label %110

107:                                              ; preds = %104
  %108 = load i32, ptr %10, align 4, !tbaa !8
  %109 = load ptr, ptr %7, align 8, !tbaa !139
  store i32 %108, ptr %109, align 4, !tbaa !8
  br label %110

110:                                              ; preds = %107, %104
  br label %111

111:                                              ; preds = %110
  br label %112

112:                                              ; preds = %111
  br label %113

113:                                              ; preds = %112
  %114 = load i32, ptr %9, align 4, !tbaa !8
  call void @llvm.lifetime.end.p0(i64 4, ptr %11) #8
  call void @llvm.lifetime.end.p0(i64 4, ptr %10) #8
  call void @llvm.lifetime.end.p0(i64 4, ptr %9) #8
  ret i32 %114
}