; Function Attrs: nounwind uwtable
define i32 @sp_prime_is_prime_ex(ptr noundef captures(address) %0, i32 noundef %1, ptr noundef writeonly captures(address_is_null) %2, ptr noundef %3) local_unnamed_addr #13 {
  %5 = alloca i64, align 8
  %6 = alloca i32, align 4
  call void @llvm.lifetime.start.p0(i64 4, ptr nonnull %6) #19
  store i32 1, ptr %6, align 4, !tbaa !123
  %7 = icmp ne ptr %0, null
  %8 = icmp ne ptr %2, null
  %or.cond.not37 = and i1 %7, %8
  %9 = icmp ne ptr %3, null
  %or.cond3.not = and i1 %or.cond.not37, %9
  br i1 %or.cond3.not, label %10, label %13

10:                                               ; preds = %4
  %11 = load i16, ptr %0, align 8, !tbaa !12
  %12 = icmp ugt i16 %11, 64
  %spec.select38 = select i1 %12, i32 -98, i32 0
  br label %13

13:                                               ; preds = %10, %4
  %.1 = phi i32 [ -98, %4 ], [ %spec.select38, %10 ]
  %14 = icmp ne i32 %.1, 0
  %15 = add i32 %1, -257
  %or.cond5 = icmp ult i32 %15, -256
  %spec.select39 = select i1 %or.cond5, i32 -98, i32 0
  %.2 = select i1 %14, i32 %.1, i32 %spec.select39
  %16 = icmp eq i32 %.2, 0
  br i1 %16, label %17, label %.thread

17:                                               ; preds = %13
  %18 = load i16, ptr %0, align 8, !tbaa !12
  %19 = icmp eq i16 %18, 1
  br i1 %19, label %20, label %sp_cmp_primes.exit

20:                                               ; preds = %17
  %21 = getelementptr inbounds nuw i8, ptr %0, i64 8
  %22 = load i64, ptr %21, align 8, !tbaa !8
  %23 = icmp eq i64 %22, 1
  br i1 %23, label %24, label %26

24:                                               ; preds = %20
  store i32 0, ptr %6, align 4, !tbaa !123
  br label %.thread

.thread:                                          ; preds = %13, %24
  %.0.ph = phi i32 [ 0, %13 ], [ 1, %24 ]
  %25 = or i1 %or.cond5, %14
  br label %sp_cmp_primes.exit

26:                                               ; preds = %20
  %27 = getelementptr inbounds nuw i8, ptr %0, i64 8
  %28 = load i64, ptr %27, align 8, !tbaa !8
  %29 = icmp ult i64 %28, 1620
  br i1 %29, label %.split.split.i, label %sp_cmp_primes.exit

.split.split.i:                                   ; preds = %26
  store i32 0, ptr %6, align 4, !tbaa !123
  br label %30

30:                                               ; preds = %sp_cmp_d.exit.thread.i, %.split.split.i
  %indvars.iv.i = phi i64 [ 0, %.split.split.i ], [ %indvars.iv.next.i, %sp_cmp_d.exit.thread.i ]
  %31 = getelementptr inbounds nuw [256 x i16], ptr @sp_primes, i64 0, i64 %indvars.iv.i
  %32 = load i16, ptr %31, align 2, !tbaa !72
  %33 = zext i16 %32 to i64
  %or.cond8.i = icmp eq i64 %28, %33
  br i1 %or.cond8.i, label %.thread53, label %sp_cmp_d.exit.thread.i

.thread53:                                        ; preds = %30
  store i32 1, ptr %6, align 4, !tbaa !123
  br label %57

sp_cmp_d.exit.thread.i:                           ; preds = %30
  %indvars.iv.next.i = add nuw nsw i64 %indvars.iv.i, 1
  %exitcond.not.i = icmp eq i64 %indvars.iv.next.i, 256
  br i1 %exitcond.not.i, label %sp_cmp_primes.exit, label %30, !llvm.loop !126

sp_cmp_primes.exit:                               ; preds = %sp_cmp_d.exit.thread.i, %17, %.thread, %26
  %34 = phi i1 [ false, %26 ], [ %25, %.thread ], [ false, %17 ], [ false, %sp_cmp_d.exit.thread.i ]
  %.146 = phi i32 [ 0, %26 ], [ %.0.ph, %.thread ], [ 0, %17 ], [ 0, %sp_cmp_d.exit.thread.i ]
  %35 = icmp ne i32 %.146, 0
  %or.cond9 = or i1 %34, %35
  br i1 %or.cond9, label %53, label %36

36:                                               ; preds = %sp_cmp_primes.exit
  call void @llvm.lifetime.start.p0(i64 8, ptr nonnull %5) #19
  br label %.lr.ph26.i

.lr.ph26.i:                                       ; preds = %36, %.loopexit.i
  %indvars.iv32.i = phi i64 [ %indvars.iv.next33.i, %.loopexit.i ], [ 0, %36 ]
  %.01624.i = phi i32 [ %.11720.i, %.loopexit.i ], [ 0, %36 ]
  %37 = getelementptr inbounds nuw [38 x i64], ptr @sp_comp, i64 0, i64 %indvars.iv32.i
  %38 = load i64, ptr %37, align 8, !tbaa !8
  %39 = call i32 @sp_mod_d(ptr noundef %0, i64 noundef %38, ptr noundef nonnull %5)
  %40 = icmp ne i32 %39, 0
  %41 = load i64, ptr %5, align 8
  %42 = icmp eq i64 %41, 0
  %or.cond.i = select i1 %40, i1 true, i1 %42
  br i1 %or.cond.i, label %.loopexit18.sink.split.i, label %.preheader.i

.preheader.i:                                     ; preds = %.lr.ph26.i
  %43 = getelementptr inbounds nuw [38 x i32], ptr @sp_comp_idx, i64 0, i64 %indvars.iv32.i
  %44 = load i32, ptr %43, align 4, !tbaa !123
  %45 = icmp slt i32 %.01624.i, %44
  br i1 %45, label %.lr.ph.preheader.i, label %.loopexit.i

.lr.ph.preheader.i:                               ; preds = %.preheader.i
  %46 = sext i32 %.01624.i to i64
  %wide.trip.count.i = sext i32 %44 to i64
  br label %.lr.ph.i

.lr.ph.i:                                         ; preds = %52, %.lr.ph.preheader.i
  %indvars.iv.i40 = phi i64 [ %46, %.lr.ph.preheader.i ], [ %indvars.iv.next.i41, %52 ]
  %47 = getelementptr inbounds [256 x i16], ptr @sp_primes, i64 0, i64 %indvars.iv.i40
  %48 = load i16, ptr %47, align 2, !tbaa !72
  %49 = zext i16 %48 to i64
  %50 = urem i64 %41, %49
  %51 = icmp eq i64 %50, 0
  br i1 %51, label %.loopexit18.sink.split.i, label %52

52:                                               ; preds = %.lr.ph.i
  %indvars.iv.next.i41 = add nsw i64 %indvars.iv.i40, 1
  %exitcond.not.i42 = icmp eq i64 %indvars.iv.next.i41, %wide.trip.count.i
  br i1 %exitcond.not.i42, label %.loopexit.i, label %.lr.ph.i, !llvm.loop !127

.loopexit.i:                                      ; preds = %52, %.preheader.i
  %.11720.i = phi i32 [ %.01624.i, %.preheader.i ], [ %44, %52 ]
  %indvars.iv.next33.i = add nuw nsw i64 %indvars.iv32.i, 1
  %exitcond.not = icmp eq i64 %indvars.iv.next33.i, 38
  br i1 %exitcond.not, label %sp_div_primes.exit, label %.lr.ph26.i, !llvm.loop !128

.loopexit18.sink.split.i:                         ; preds = %.lr.ph26.i, %.lr.ph.i
  %.1.ph.i = phi i32 [ 0, %.lr.ph.i ], [ %39, %.lr.ph26.i ]
  store i32 0, ptr %6, align 4, !tbaa !123
  br label %sp_div_primes.exit

sp_div_primes.exit:                               ; preds = %.loopexit.i, %.loopexit18.sink.split.i
  %.348 = phi i32 [ 1, %.loopexit18.sink.split.i ], [ 0, %.loopexit.i ]
  %.1.i = phi i32 [ %.1.ph.i, %.loopexit18.sink.split.i ], [ 0, %.loopexit.i ]
  call void @llvm.lifetime.end.p0(i64 8, ptr nonnull %5) #19
  br label %53

53:                                               ; preds = %sp_div_primes.exit, %sp_cmp_primes.exit
  %.247 = phi i32 [ %.146, %sp_cmp_primes.exit ], [ %.348, %sp_div_primes.exit ]
  %.3 = phi i32 [ %.2, %sp_cmp_primes.exit ], [ %.1.i, %sp_div_primes.exit ]
  %54 = or i32 %.3, %.247
  %or.cond11.not = icmp eq i32 %54, 0
  br i1 %or.cond11.not, label %55, label %57

55:                                               ; preds = %53
  %56 = call fastcc i32 @_sp_prime_random_trials(ptr noundef %0, i32 noundef %1, ptr noundef %6, ptr noundef %3)
  br label %57

57:                                               ; preds = %.thread53, %55, %53
  %.4 = phi i32 [ %.3, %53 ], [ %56, %55 ], [ 0, %.thread53 ]
  %.not = icmp eq ptr %2, null
  br i1 %.not, label %60, label %58

58:                                               ; preds = %57
  %59 = load i32, ptr %6, align 4, !tbaa !123
  store i32 %59, ptr %2, align 4, !tbaa !123
  br label %60

60:                                               ; preds = %57, %58
  call void @llvm.lifetime.end.p0(i64 4, ptr nonnull %6) #19
  ret i32 %.4
}